target datalayout = "e-m:e-p270:32:32-p271:32:32-p272:64:64-i64:64-i128:128-f80:128-n8:16:32:64-S128"
target triple = "x86_64-pc-linux-gnu"

%"class.std::__cxx11::basic_string" = type { %"struct.std::__cxx11::basic_string<char>::_Alloc_hider", i64, %union.anon }
%"struct.std::__cxx11::basic_string<char>::_Alloc_hider" = type { ptr }
%union.anon = type { i64, [8 x i8] }
%"class.std::vector.133" = type { %"struct.std::_Vector_base.134" }
%"struct.std::_Vector_base.134" = type { %"struct.std::_Vector_base<llvm::Record *, std::allocator<llvm::Record *>>::_Vector_impl" }
%"struct.std::_Vector_base<llvm::Record *, std::allocator<llvm::Record *>>::_Vector_impl" = type { %"struct.std::_Vector_base<llvm::Record *, std::allocator<llvm::Record *>>::_Vector_impl_data" }
%"struct.std::_Vector_base<llvm::Record *, std::allocator<llvm::Record *>>::_Vector_impl_data" = type { ptr, ptr, ptr }
%"class.llvm::IntrusiveRefCntPtr" = type { ptr }
%"class.llvm::PatternToMatch" = type <{ ptr, ptr, %"class.llvm::IntrusiveRefCntPtr", %"class.llvm::IntrusiveRefCntPtr", %"class.std::vector.133", %"class.std::__cxx11::basic_string", i32, i8, [3 x i8], i32, [4 x i8] }>

; Function Attrs: mustprogress nounwind uwtable
define linkonce_odr hidden noundef nonnull align 8 dereferenceable(184) ptr @_ZNK4llvm18IntrusiveRefCntPtrINS_15TreePatternNodeEEdeEv(ptr noundef nonnull align 8 dereferenceable(8) %0) #0 comdat align 2 {
  %2 = alloca ptr, align 8
  store ptr %0, ptr %2, align 8
  %3 = load ptr, ptr %2, align 8
  %4 = getelementptr inbounds nuw %"class.llvm::IntrusiveRefCntPtr", ptr %3, i32 0, i32 0
  %5 = load ptr, ptr %4, align 8
  ret ptr %5
}

; Function Attrs: mustprogress nounwind uwtable
define linkonce_odr hidden noundef i32 @_ZNK4llvm14PatternToMatch18getAddedComplexityEv(ptr noundef nonnull align 8 dereferenceable(100) %0) #0 comdat align 2 {
  %2 = alloca ptr, align 8
  store ptr %0, ptr %2, align 8
  %3 = load ptr, ptr %2, align 8
  %4 = getelementptr inbounds nuw %"class.llvm::PatternToMatch", ptr %3, i32 0, i32 6
  %5 = load i32, ptr %4, align 8
  ret i32 %5
}

; Function Attrs: mustprogress nounwind uwtable
define linkonce_odr hidden noundef nonnull align 8 dereferenceable(184) ptr @_ZNK4llvm14PatternToMatch13getSrcPatternEv(ptr noundef nonnull align 8 dereferenceable(100) %0) #0 comdat align 2 {
  %2 = alloca ptr, align 8
  store ptr %0, ptr %2, align 8
  %3 = load ptr, ptr %2, align 8
  %4 = getelementptr inbounds nuw %"class.llvm::PatternToMatch", ptr %3, i32 0, i32 2
  %5 = call noundef nonnull align 8 dereferenceable(184) ptr @_ZNK4llvm18IntrusiveRefCntPtrINS_15TreePatternNodeEEdeEv(ptr noundef nonnull align 8 dereferenceable(8) %4)
  ret ptr %5
}

; Function Attrs: mustprogress nounwind uwtable
define dso_local noundef i32 @_ZNK4llvm14PatternToMatch20getPatternComplexityERKNS_18CodeGenDAGPatternsE(ptr noundef nonnull align 8 dereferenceable(100) %0, ptr noundef nonnull align 8 dereferenceable(1212) %1) #0 align 2 {
  %3 = alloca ptr, align 8
  %4 = alloca ptr, align 8
  store ptr %0, ptr %3, align 8
  store ptr %1, ptr %4, align 8
  %5 = load ptr, ptr %3, align 8
  %6 = call noundef nonnull align 8 dereferenceable(184) ptr @_ZNK4llvm14PatternToMatch13getSrcPatternEv(ptr noundef nonnull align 8 dereferenceable(100) %5)
  %7 = load ptr, ptr %4, align 8
  %8 = call noundef i32 @_ZL14getPatternSizeRKN4llvm15TreePatternNodeERKNS_18CodeGenDAGPatternsE(ptr noundef nonnull align 8 dereferenceable(184) %6, ptr noundef nonnull align 8 dereferenceable(1212) %7)
  %9 = call noundef i32 @_ZNK4llvm14PatternToMatch18getAddedComplexityEv(ptr noundef nonnull align 8 dereferenceable(100) %5)
  %10 = add i32 %8, %9
  ret i32 %10
}