; Function Attrs: mustprogress nounwind uwtable
define dso_local noundef i32 @_ZNK4llvm14PatternToMatch20getPatternComplexityERKNS_18CodeGenDAGPatternsE(ptr nocapture noundef nonnull readonly align 8 dereferenceable(100) %0, ptr noundef nonnull align 8 dereferenceable(1212) %1) local_unnamed_addr #0 align 2 {
  %3 = getelementptr inbounds nuw i8, ptr %0, i64 16
  %4 = load ptr, ptr %3, align 8
  %5 = tail call fastcc noundef i32 @_ZL14getPatternSizeRKN4llvm15TreePatternNodeERKNS_18CodeGenDAGPatternsE(ptr noundef nonnull align 8 dereferenceable(184) %4, ptr noundef nonnull align 8 dereferenceable(1212) %1)
  %6 = getelementptr inbounds nuw i8, ptr %0, i64 88
  %7 = load i32, ptr %6, align 8
  %8 = add i32 %7, %5
  ret i32 %8
}